; Function Attrs: mustprogress nounwind uwtable
define hidden noundef zeroext i1 @_ZNK14JfrThreadGroup19JfrThreadGroupEntry8is_equalERK22JfrThreadGroupPointers(ptr nocapture noundef nonnull readonly align 8 dereferenceable(40) %0, ptr nocapture noundef nonnull readonly align 8 dereferenceable(16) %1) local_unnamed_addr #0 align 2 {
  %3 = load ptr, ptr %1, align 8
  %4 = icmp eq ptr %3, null
  br i1 %4, label %_ZNK22JfrThreadGroupPointers16thread_group_oopEv.exit, label %5

5:                                                ; preds = %2
  %6 = load ptr, ptr %3, align 8
  br label %_ZNK22JfrThreadGroupPointers16thread_group_oopEv.exit

_ZNK22JfrThreadGroupPointers16thread_group_oopEv.exit: ; preds = %2, %5
  %7 = phi ptr [ %6, %5 ], [ null, %2 ]
  %8 = getelementptr inbounds i8, ptr %0, i64 32
  %9 = load ptr, ptr %8, align 8
  %.not.i = icmp eq ptr %9, null
  br i1 %.not.i, label %23, label %10

10:                                               ; preds = %_ZNK22JfrThreadGroupPointers16thread_group_oopEv.exit
  %11 = ptrtoint ptr %9 to i64
  %12 = and i64 %11, 3
  switch i64 %12, label %21 [
    i64 1, label %13
    i64 2, label %17
  ]

13:                                               ; preds = %10
  %14 = getelementptr inbounds i8, ptr %9, i64 -1
  %15 = load ptr, ptr @_ZN14AccessInternal15RuntimeDispatchILm598084EP7oopDescLNS_11BarrierTypeE2EE10_load_funcE, align 8
  %16 = tail call noundef ptr %15(ptr noundef nonnull %14) #20
  br label %_ZNK14JfrThreadGroup19JfrThreadGroupEntry12thread_groupEv.exit

17:                                               ; preds = %10
  %18 = getelementptr inbounds i8, ptr %9, i64 -2
  %19 = load ptr, ptr @_ZN14AccessInternal15RuntimeDispatchILm548932EP7oopDescLNS_11BarrierTypeE2EE10_load_funcE, align 8
  %20 = tail call noundef ptr %19(ptr noundef nonnull %18) #20
  br label %_ZNK14JfrThreadGroup19JfrThreadGroupEntry12thread_groupEv.exit

21:                                               ; preds = %10
  %22 = load ptr, ptr %9, align 8
  br label %_ZNK14JfrThreadGroup19JfrThreadGroupEntry12thread_groupEv.exit

23:                                               ; preds = %_ZNK22JfrThreadGroupPointers16thread_group_oopEv.exit
  %24 = getelementptr inbounds i8, ptr %0, i64 24
  %25 = load ptr, ptr %24, align 8
  br label %_ZNK14JfrThreadGroup19JfrThreadGroupEntry12thread_groupEv.exit

_ZNK14JfrThreadGroup19JfrThreadGroupEntry12thread_groupEv.exit: ; preds = %13, %17, %21, %23
  %26 = phi ptr [ %25, %23 ], [ %16, %13 ], [ %20, %17 ], [ %22, %21 ]
  %27 = icmp eq ptr %7, %26
  ret i1 %27
}